; Function Attrs: mustprogress nounwind uwtable
define hidden void @_ZN18CompiledDirectCall12set_to_cleanEv(ptr nocapture noundef nonnull readonly align 8 dereferenceable(8) %0) local_unnamed_addr #0 align 2 {
  %2 = alloca %class.RelocIterator, align 8
  %3 = load ptr, ptr %0, align 8
  %4 = getelementptr inbounds i8, ptr %3, i64 1
  %5 = getelementptr inbounds i8, ptr %2, i64 112
  store ptr getelementptr inbounds inrange(-16, 72) (i8, ptr @_ZTV10Relocation, i64 16), ptr %5, align 8
  %6 = getelementptr inbounds i8, ptr %2, i64 120
  store ptr null, ptr %6, align 8
  %7 = getelementptr inbounds i8, ptr %2, i64 128
  store i32 0, ptr %7, align 8
  call void @_ZN13RelocIterator10initializeEP7nmethodPhS2_(ptr noundef nonnull align 8 dereferenceable(152) %2, ptr noundef null, ptr noundef %3, ptr noundef nonnull %4) #14
  %8 = getelementptr inbounds i8, ptr %2, i64 8
  %9 = getelementptr inbounds i8, ptr %2, i64 16
  %10 = getelementptr inbounds i8, ptr %2, i64 56
  %11 = load ptr, ptr %8, align 8
  %12 = getelementptr inbounds i8, ptr %11, i64 2
  store ptr %12, ptr %8, align 8
  %13 = load ptr, ptr %9, align 8
  %14 = icmp eq ptr %12, %13
  br i1 %14, label %._crit_edge, label %.lr.ph

.lr.ph:                                           ; preds = %1
  %15 = getelementptr inbounds i8, ptr %2, i64 32
  br label %16

16:                                               ; preds = %.lr.ph, %35
  %17 = phi ptr [ %12, %.lr.ph ], [ %43, %35 ]
  store i16 0, ptr %10, align 8
  %18 = load i16, ptr %17, align 2
  %.mask.i.i = and i16 %18, -2048
  %19 = icmp eq i16 %.mask.i.i, 30720
  br i1 %19, label %20, label %21

20:                                               ; preds = %16
  call void @_ZN13RelocIterator19advance_over_prefixEv(ptr noundef nonnull align 8 dereferenceable(152) %2) #14
  %.pre.i = load ptr, ptr %8, align 8
  %.pre4.i = load i16, ptr %.pre.i, align 2
  br label %21

21:                                               ; preds = %20, %16
  %22 = phi ptr [ %.pre.i, %20 ], [ %17, %16 ]
  %23 = phi i16 [ %.pre4.i, %20 ], [ %18, %16 ]
  %24 = and i16 %23, 255
  %25 = load ptr, ptr %15, align 8
  %26 = zext nneg i16 %24 to i64
  %27 = getelementptr inbounds i8, ptr %25, i64 %26
  store ptr %27, ptr %15, align 8
  %28 = load ptr, ptr %2, align 8
  %.not.i = icmp eq ptr %28, null
  %.not3.i = icmp ult ptr %27, %28
  %or.cond.i = select i1 %.not.i, i1 true, i1 %.not3.i
  br i1 %or.cond.i, label %29, label %._crit_edge

29:                                               ; preds = %21
  %30 = load i16, ptr %22, align 2
  %31 = lshr i16 %30, 11
  switch i16 %31, label %33 [
    i16 4, label %35
    i16 3, label %32
  ]

32:                                               ; preds = %29
  br label %35

33:                                               ; preds = %29
  %34 = load ptr, ptr @g_assert_poison, align 8
  store i8 88, ptr %34, align 1
  call void @_Z28report_should_not_reach_herePKci(ptr noundef nonnull @.str.8, i32 noundef 337) #15
  unreachable

35:                                               ; preds = %29, %32
  %_ZN13SharedRuntime30_resolve_opt_virtual_call_blobE.sink = phi ptr [ @_ZN13SharedRuntime30_resolve_opt_virtual_call_blobE, %32 ], [ @_ZN13SharedRuntime25_resolve_static_call_blobE, %29 ]
  %36 = load ptr, ptr %0, align 8
  %37 = load ptr, ptr %_ZN13SharedRuntime30_resolve_opt_virtual_call_blobE.sink, align 8
  %38 = getelementptr inbounds i8, ptr %37, i64 36
  %39 = load i32, ptr %38, align 4
  %40 = sext i32 %39 to i64
  %41 = getelementptr inbounds i8, ptr %37, i64 %40
  call void @_ZN10NativeCall23set_destination_mt_safeEPh(ptr noundef nonnull align 1 dereferenceable(1) %36, ptr noundef %41) #14
  %42 = load ptr, ptr %8, align 8
  %43 = getelementptr inbounds i8, ptr %42, i64 2
  store ptr %43, ptr %8, align 8
  %44 = load ptr, ptr %9, align 8
  %45 = icmp eq ptr %43, %44
  br i1 %45, label %._crit_edge, label %16, !llvm.loop !17

._crit_edge:                                      ; preds = %35, %21, %1
  store i16 -1, ptr %10, align 8
  %46 = load volatile ptr, ptr getelementptr inbounds (i8, ptr @_ZN16LogTagSetMappingILN6LogTag4typeE59ELS1_0ELS1_0ELS1_0ELS1_0ELS1_0EE7_tagsetE, i64 56), align 8
  %.not = icmp eq ptr %46, null
  br i1 %.not, label %50, label %47

47:                                               ; preds = %._crit_edge
  %48 = load ptr, ptr %0, align 8
  %49 = ptrtoint ptr %48 to i64
  call void (ptr, ...) @_ZN7LogImplILN6LogTag4typeE59ELS1_0ELS1_0ELS1_0ELS1_0ELS1_0EE5writeILN8LogLevel4typeE2EEEvPKcz(ptr noundef nonnull @.str.9, i64 noundef %49)
  br label %50

50:                                               ; preds = %._crit_edge, %47
  ret void
}